(lp0
(lp1
S'A'
p2
aS'bocce'
p3
aS'ferme'
p4
aS'si'
p5
aa(lp6
g2
aS'buon'
p7
aS'cavalier'
p8
aa(lp9
g2
aS'buon'
p10
aS'consiglio'
p11
aa(lp12
g2
aS'carnevale'
p13
aa(lp14
g2
aS'casa'
p15
aS'dei'
p16
aa(lp17
g2
aS'casa'
p18
aS'dei'
p19
aS'suonatori'
p20
aa(lp21
g2
aS'casa'
p22
aS'sua'
p23
aa(lp24
g2
aS'cattivo'
p25
aS'lavoratore'
p26
aa(lp27
g2
aS'caval'
p28
aS'donato'
p29
aS'non'
p30
aa(lp31
g2
aS'chi'
p32
aS'ha'
p33
aa(lp34
g2
aS'chi'
p35
aS'non'
p36
aS'teme'
p37
aS'il'
p38
aa(lp39
g2
aS'chi'
p40
aS'prende'
p41
aS'moglie'
p42
aa(lp43
g2
aS'chi'
p44
aS'vuol'
p45
aa(lp46
S'Acqua'
p47
aS'passata'
p48
aa(lp49
S'Agli'
p50
aS'amanti'
p51
aS'e'
p52
aS'ai'
p53
aS'cacciatori'
p54
aa(lp55
g2
aS'goccia'
p56
aS'a'
p57
aS'goccia'
p58
aa(lp59
g2
aS'goccia'
p60
ag57
aa(lp61
S'Aiuta'
p62
aS'i'
p63
aS'tuoi'
p64
ag52
aa(lp65
g2
aS'lavar'
p66
aS'la'
p67
aS'testa'
p68
aS"all'asino"
p69
aS'ci'
p70
aa(lp71
g2
aS'lacrime'
p72
aS'di'
p73
aS'erede'
p74
aa(lp75
S'Al'
p76
aS'cuor'
p77
aa(lp78
S'Alla'
p79
aS'candelora'
p80
aa(lp81
S'Al'
p82
aS'naso'
p83
aS'non'
p84
aa(lp85
S'Al'
p86
aS'vecchio'
p87
aS'non'
p88
aa(lp89
S'Al'
p90
aS'villano'
p91
aS'se'
p92
aS'gli'
p93
aS'dai'
p94
aS'un'
p95
aa(lp96
g2
aS'mali'
p97
aa(lp98
S'Ambasciator'
p99
aS'non'
p100
aa(lp101
S'Amor'
p102
aS'senza'
p103
aS'baruffa'
p104
aa(lp105
g2
aS'ogni'
p106
aS'santo'
p107
aa(lp108
g2
aS'pagare'
p109
ag52
ag57
aa(lp110
g2
aS'pensar'
p111
aS'male'
p112
aa(lp113
g2
aS'San'
p114
aS'Martino'
p115
aS'ogni'
p116
aa(lp117
S'Asino'
p118
aS'vecchio'
p119
aa(lp120
g57
aS'tavola'
p121
ag52
ag57
aa(lp122
g2
aS'tavola'
p123
aa(lp124
S'Bacio'
p125
aS'di'
p126
aS'bocca'
p127
aa(lp128
S'Batti'
p129
aS'il'
p130
aS'ferro'
p131
aa(lp132
S'Buon'
p133
aS'sangue'
p134
aa(lp135
S'Campa'
p136
aS'cavallo'
p137
aa(lp138
S'Campar'
p139
aS'senza'
p140
aS'fatica'
p141
aS'\xc3\xa8'
p142
aa(lp143
S'Can'
p144
aS'che'
p145
aa(lp146
S'Carta'
p147
aS'canta'
p148
aa(lp149
S'Cattivo'
p150
aS'bastone'
p151
aS'non'
p152
aa(lp153
S'Chi'
p154
aS'al'
p155
aS'caso'
p156
aS"s'affida"
p157
aa(lp158
S'Chi'
p159
aS'ama'
p160
aa(lp161
S'Chi'
p162
aS'ascolta'
p163
aS'troppa'
p164
aS'gente'
p165
aa(lp166
S'Chi'
p167
aS'ben'
p168
aS'comincia'
p169
aa(lp170
S'Chi'
p171
aS'di'
p172
aS'verde'
p173
aS'si'
p174
aS'veste'
p175
aa(lp176
S'Chi'
p177
aS'domanda'
p178
aa(lp179
S'Chi'
p180
aS'dorme'
p181
aa(lp182
S'Chi'
p183
aS'\xc3\xa8'
p184
aS'nato'
p185
aS'citrullo'
p186
aS'\xc3\xa8'
p187
aa(lp188
S'Chi'
p189
aS'ha'
p190
aS'tempo'
p191
aa(lp192
S'Chi'
p193
aS'la'
p194
aa(lp195
S'Chi'
p196
aS'ha'
p197
aS'torto'
p198
aa(lp199
S'Chi'
p200
aa(lp201
S'Chi'
p202
aS'nasce'
p203
aS'dalla'
p204
aa(lp205
S'Chi'
p206
aS'nasce'
p207
aa(lp208
S'Chi'
p209
aS'nasce'
p210
aS'tondo'
p211
aa(lp212
S'Chi'
p213
aS'non'
p214
aS'intende'
p215
aS'la'
p216
aS'propria'
p217
aa(lp218
S'Chi'
p219
aS'non'
p220
aa(lp221
S'Chi'
p222
aS'non'
p223
aa(lp224
S'Chiodo'
p225
aa(lp226
S'Chi'
p227
aS'rompe'
p228
aS'paga'
p229
ag52
aa(lp230
S'Chi'
p231
aS'sa'
p232
aS'fa'
p233
ag52
aa(lp234
S'Chi'
p235
aS'semina'
p236
aS'sulla'
p237
aa(lp238
S'Chi'
p239
aS'semina'
p240
aa(lp241
S'Chi'
p242
aS'si'
p243
aa(lp244
S'Chi'
p245
aS'si'
p246
aS'\xc3\xa8'
p247
aS'scottato'
p248
aS'con'
p249
aS"l'acqua"
p250
aa(lp251
S'Chi'
p252
aS'si'
p253
aa(lp254
S'Chi'
p255
aa(lp256
S'Chi'
p257
aS'troppo'
p258
aS'la'
p259
aa(lp260
S'Chi'
p261
aS'tutto'
p262
aa(lp263
S'Chi'
p264
aS'va'
p265
aa(lp266
S'Chi'
p267
aS'va'
p268
aS'con'
p269
aS'lo'
p270
aa(lp271
S'Chi'
p272
aS'va'
p273
aS'piano'
p274
aS'va'
p275
aa(lp276
S'Chi'
p277
aS'vive'
p278
aS'di'
p279
aa(lp280
S'Con'
p281
ag63
aS'se'
p282
ag52
aS'con'
p283
ag63
aa(lp284
S'Con'
p285
aS'lacrime'
p286
ag52
aS'lamenti'
p287
aS'non'
p288
aa(lp289
S'Con'
p290
aS'la'
p291
aS'moglie'
p292
ag57
aa(lp293
S'Con'
p294
aS'le'
p295
aS'buone'
p296
aa(lp297
S'Con'
p298
aS'le'
p299
aS'mani'
p300
aS'di'
p301
aS"un'altro"
p302
aa(lp303
S'Conta'
p304
aS'pi\xc3\xb9'
p305
aS'la'
p306
aa(lp307
S'Con'
p308
aS'un'
p309
aS'p\xc3\xb2'
p310
aS'di'
p311
aa(lp312
S'Cuor'
p313
aS'contento'
p314
aa(lp315
S'Da'
p316
aS'cosa'
p317
aa(lp318
S'Dal'
p319
aS'frutto'
p320
aa(lp321
S'Da'
p322
aS'ospedale'
p323
ag52
aS'cimitero'
p324
aa(lp325
S'Di'
p326
aS'buone'
p327
aS'intenzioni'
p328
aa(lp329
S'Dimmi'
p330
aS'con'
p331
aS'chi'
p332
aS'vai'
p333
aa(lp334
S'Dio'
p335
aS'ama'
p336
aS'parlare'
p337
aa(lp338
S'Disgrazia'
p339
ag52
aS'osteria'
p340
aa(lp341
S'Dolci'
p342
aS'parole'
p343
ag52
aS'tristi'
p344
aa(lp345
S'Donne'
p346
ag52
aS'uomini'
p347
aa(lp348
S'Dove'
p349
aS'ci'
p350
aS'son'
p351
aS'donne'
p352
aS'innamorate'
p353
aa(lp354
S"Dov'\xc3\xa8"
p355
aS"l'innocenza"
p356
aa(lp357
S"E'"
p358
aS'ladro'
p359
aS'chi'
p360
aS'ruba'
p361
ag52
aa(lp362
S"E'"
p363
aS'meglio'
p364
aS'un'
p365
aS'magro'
p366
aa(lp367
S'Fa'
p368
aS'pi\xc3\xb9'
p369
aS'danno'
p370
aa(lp371
S'Fare'
p372
aS'insegna'
p373
aa(lp374
S'Fidarsi'
p375
aS'\xc3\xa8'
p376
aS'bene'
p377
aa(lp378
S'Fra'
p379
ag63
aS'due'
p380
aa(lp381
S'Gallina'
p382
aS'che'
p383
aS'canta'
p384
aa(lp385
S'Gallina'
p386
aS'che'
p387
aS'non'
p388
aa(lp389
S'Gallina'
p390
aS'vecchia'
p391
aa(lp392
S'Gli'
p393
aS'errori'
p394
aS'dei'
p395
aS'dottori'
p396
aa(lp397
S'I'
p398
aS'fatti'
p399
aS'della'
p400
aS'pentola'
p401
aa(lp402
S'Il'
p403
aS'buon'
p404
aS'giorno'
p405
aa(lp406
S'Il'
p407
aS'cane'
p408
aa(lp409
S'Il'
p410
aS'carbone'
p411
aS'o'
p412
aa(lp413
S'Il'
p414
aS'contadino'
p415
aS'ha'
p416
aS'scarpe'
p417
aa(lp418
S'Il'
p419
aS'dentista'
p420
aS'mangia'
p421
aa(lp422
S'Il'
p423
aS'diavolo'
p424
aS'fa'
p425
aS'le'
p426
aa(lp427
S'Il'
p428
aS'difficile'
p429
aa(lp430
S'Il'
p431
aS'giovane'
p432
aS'ozioso'
p433
aa(lp434
S'Il'
p435
aS'mattino'
p436
aS'ha'
p437
aa(lp438
S'Il'
p439
aS'miglior'
p440
aS'specchio'
p441
aa(lp442
S'Il'
p443
aS'lupo'
p444
aS'perde'
p445
aS'il'
p446
aa(lp447
S'Il'
p448
aS'peggior'
p449
aS'sordo'
p450
aS'\xc3\xa8'
p451
aa(lp452
S'Il'
p453
aS'pi\xc3\xb9'
p454
aa(lp455
S'Il'
p456
aS'riso'
p457
aS'abbonda'
p458
aa(lp459
S'Il'
p460
aS'satollo'
p461
aa(lp462
S'Il'
p463
aS'silenzio'
p464
aa(lp465
S'Il'
p466
aS'sonno'
p467
aS'della'
p468
aa(lp469
S'Il'
p470
aS'torto'
p471
aS'non'
p472
aS'sta'
p473
aa(lp474
S'Il'
p475
aa(lp476
S'Il'
p477
aS'vino'
p478
aS'buono'
p479
aa(lp480
S'Il'
p481
aS'vino'
p482
aS'rende'
p483
aS'lieti'
p484
aa(lp485
S'Impara'
p486
aS"l'arte"
p487
ag52
aa(lp488
S'In'
p489
aS'amore'
p490
ag52
aS'in'
p491
aa(lp492
S'In'
p493
aS'bocca'
p494
aS'chiusa'
p495
aa(lp496
S'In'
p497
aS'casa'
p498
aS'del'
p499
aS'diavolo'
p500
aa(lp501
S'In'
p502
aS'casa'
p503
aS'di'
p504
aS'galantuomo'
p505
aS'nasce'
p506
aa(lp507
S'In'
p508
aS"un'ora"
p509
aa(lp510
g398
aS'panni'
p511
aS'sporchi'
p512
aa(lp513
g398
aS'pifferi'
p514
aS'di'
p515
aS'montagna'
p516
aS'andarono'
p517
aa(lp518
S"L'abito"
p519
aS'non'
p520
aa(lp521
S'La'
p522
aS'bugia'
p523
aS'ha'
p524
aa(lp525
S'La'
p526
aS'civilt\xc3\xa0'
p527
aS'moderna'
p528
aS'\xc3\xa8'
p529
aS'la'
p530
aa(lp531
S"L'acqua"
p532
aS'vuol'
p533
aS'pendenza'
p534
aa(lp535
S'Lacrime'
p536
aS"d'erede"
p537
aS'\xc3\xa8'
p538
aa(lp539
S'La'
p540
aS'donna'
p541
aS'ne'
p542
aa(lp543
S'La'
p544
aS'fame'
p545
aS'\xc3\xa8'
p546
aa(lp547
S'La'
p548
aS'fame'
p549
aS'fa'
p550
aS'uscire'
p551
aa(lp552
S'La'
p553
aS'farina'
p554
aS'del'
p555
aS'diavolo'
p556
aa(lp557
S'La'
p558
aS'fretta'
p559
aa(lp560
S'La'
p561
aS'gatta'
p562
aS'frettolosa'
p563
aa(lp564
S'La'
p565
aS'goccia'
p566
aa(lp567
S"L'albero"
p568
aS'si'
p569
aa(lp570
S'La'
p571
aS'lingua'
p572
aS'batte'
p573
aa(lp574
S"L'amico"
p575
aS'certo'
p576
aa(lp577
S'La'
p578
aS'miglior'
p579
aS'vendetta'
p580
aa(lp581
S"L'amore"
p582
ag52
aS'la'
p583
aS'tosse'
p584
aa(lp585
S'La'
p586
aS'necessit\xc3\xa0'
p587
aa(lp588
S'La'
p589
aS'notte'
p590
aa(lp591
S'La'
p592
aS'pazienza'
p593
aS'se'
p594
ag57
aa(lp595
S"L'apparenza"
p596
aa(lp597
S"L'appetito"
p598
aa(lp599
S'La'
p600
aS'prudenza'
p601
aS'non'
p602
aa(lp603
S'La'
p604
aS'saggezza'
p605
aS'del'
p606
aa(lp607
S'La'
p608
aS'speranza'
p609
aS'\xc3\xa8'
p610
aa(lp611
S'La'
p612
aS'storia'
p613
aS'\xc3\xa8'
p614
aa(lp615
S'La'
p616
aS'superbia'
p617
aS'and\xc3\xb2'
p618
ag57
aa(lp619
S'La'
p620
aS'vecchia'
p621
aS'impara'
p622
aa(lp623
S'La'
p624
aS'volpe'
p625
aS'che'
p626
aS'non'
p627
aS'arriva'
p628
aa(lp629
S'Le'
p630
aS'chiacchiere'
p631
aa(lp632
S'Le'
p633
aS'cose'
p634
aa(lp635
S'Le'
p636
aS'parole'
p637
aS'vane'
p638
aS'durano'
p639
aa(lp640
S"L'erba"
p641
aS'cattiva'
p642
aa(lp643
S"L'erba"
p644
aS'del'
p645
aS'vicino'
p646
aa(lp647
S'Le'
p648
aS'uova'
p649
aS'non'
p650
aS'hanno'
p651
aa(lp652
S"L'occasione"
p653
aS'fa'
p654
aa(lp655
S"L'occhio"
p656
aS'del'
p657
aS'padrone'
p658
aa(lp659
S"L'occhio"
p660
aS'\xc3\xa8'
p661
aa(lp662
S'Lontano'
p663
aS'dagli'
p664
aS'occhi'
p665
aa(lp666
S"L'ospite"
p667
aS'\xc3\xa8'
p668
aS'come'
p669
aS'il'
p670
aa(lp671
S"L'ozio"
p672
aS'\xc3\xa8'
p673
aS'il'
p674
aa(lp675
S"L'uomo"
p676
aS'crede'
p677
aS'vero'
p678
aa(lp679
S'Mai'
p680
aS'tard\xc3\xb2'
p681
aa(lp682
S'Meglio'
p683
aS'tardi'
p684
aa(lp685
S'Meglio'
p686
aS'un'
p687
aS'asino'
p688
aS'vivo'
p689
aa(lp690
S'Meglio'
p691
aS'soli'
p692
aa(lp693
S'Nacque'
p694
aS'per'
p695
aS'nulla'
p696
aS'chi'
p697
aa(lp698
S'Ne'
p699
aS'ammazza'
p700
aS'pi\xc3\xb9'
p701
aS'la'
p702
aa(lp703
S'Nel'
p704
aS'bisogno'
p705
aa(lp706
S'Nel'
p707
aS'fiume'
p708
aS'che'
p709
aa(lp710
S'Nella'
p711
aS'botte'
p712
aS'piccola'
p713
aa(lp714
S'Nel'
p715
aS'paese'
p716
aS'dei'
p717
aS'ciechi'
p718
aa(lp719
S'Nel'
p720
aS'pollaio'
p721
aS'non'
p722
aS"c'\xc3\xa8"
p723
aS'pace'
p724
aS'se'
p725
aa(lp726
S'Nero'
p727
aS'con'
p728
aa(lp729
S'Ne'
p730
aS'uccide'
p731
aS'pi\xc3\xb9'
p732
aS'la'
p733
aa(lp734
S'Non'
p735
aS"c'\xc3\xa8"
p736
aS'carne'
p737
aS'in'
p738
aS'macelleria'
p739
aS'che'
p740
aa(lp741
S'Non'
p742
aS"c'\xc3\xa8"
p743
aa(lp744
S'Non'
p745
aS"c'\xc3\xa8"
p746
aS'peggior'
p747
aS'sordo'
p748
aa(lp749
S'Non'
p750
aS'dire'
p751
aS'quattro'
p752
aS'se'
p753
aa(lp754
S'Non'
p755
aS'\xc3\xa8'
p756
aS'amico'
p757
aS'mio'
p758
aS'quel'
p759
aS'che'
p760
aa(lp761
S'Non'
p762
aS'\xc3\xa8'
p763
aS'bello'
p764
aS'ci\xc3\xb2'
p765
aS'che'
p766
aS'\xc3\xa8'
p767
aa(lp768
S'Non'
p769
aS'\xc3\xa8'
p770
aS'ricco'
p771
aS'chi'
p772
aS'possiede'
p773
aa(lp774
S'Non'
p775
aS'\xc3\xa8'
p776
aS"tutt'oro"
p777
aa(lp778
S'Non'
p779
aS'parlar'
p780
aS'di'
p781
aa(lp782
S'Non'
p783
aS'puoi'
p784
aS'avere'
p785
aS'botte'
p786
aa(lp787
S'Non'
p788
aS'puoi'
p789
aS'vedere'
p790
aS'il'
p791
aS'bosco'
p792
aa(lp793
S'Non'
p794
aS'serve'
p795
aS'la'
p796
aS'scienza'
p797
aa(lp798
S'Non'
p799
aS'stuzzicare'
p800
aS'il'
p801
aa(lp802
S'Non'
p803
aS'tutti'
p804
ag63
aa(lp805
S'Ogni'
p806
aS'botte'
p807
aS'd\xc3\xa0'
p808
aa(lp809
S'Ogni'
p810
aS'legno'
p811
aS'ha'
p812
aa(lp813
S'Ogni'
p814
aS'lasciata'
p815
aa(lp816
S'Ogni'
p817
aS'medaglia'
p818
aS'ha'
p819
aa(lp820
S'Ogni'
p821
aS'promessa'
p822
aa(lp823
S'Ognuno'
p824
aS'\xc3\xa8'
p825
aS'fabbro'
p826
aa(lp827
S'Paese'
p828
aS'che'
p829
aS'vai'
p830
aa(lp831
S'Per'
p832
aS'amore'
p833
aS'anche'
p834
aS'la'
p835
aa(lp836
S'Per'
p837
aS'insegnare'
p838
aa(lp839
S'Pi\xc3\xb9'
p840
aS'pesci'
p841
aS'acchiapper\xc3\xa0'
p842
aS'chi'
p843
aS'nello'
p844
aS'stagno'
p845
aa(lp846
S'Presto'
p847
ag52
aS'bene'
p848
aa(lp849
S'Quando'
p850
aS'arriva'
p851
aS'la'
p852
aS'minestra'
p853
aS'non'
p854
aa(lp855
S'Quando'
p856
aS'il'
p857
aS'piccolo'
p858
aS'parla'
p859
aa(lp860
S'Quando'
p861
aS'vien'
p862
aS'la'
p863
aa(lp864
S'Raglio'
p865
aS"d'asino"
p866
aS'non'
p867
aa(lp868
S'Ride'
p869
aS'bene'
p870
aa(lp871
S'Rispetta'
p872
aS'il'
p873
aS'cane'
p874
aa(lp875
S'Rosso'
p876
aS'di'
p877
aS'sera'
p878
aa(lp879
S'Sacco'
p880
aS'vuoto'
p881
aS'non'
p882
aa(lp883
S'Sbagliando'
p884
aa(lp885
S'Scherza'
p886
aS'coi'
p887
aS'Fanti'
p888
ag52
aa(lp889
S'Se'
p890
aS'hai'
p891
ag63
aS'soldi'
p892
aa(lp893
S'Se'
p894
aS'non'
p895
aS'\xc3\xa8'
p896
aa(lp897
S'Se'
p898
aS'sei'
p899
aS'onesto'
p900
aa(lp901
S'Si'
p902
aS'\xc3\xa8'
p903
aS'prima'
p904
aa(lp905
S'Sono'
p906
aS'meno'
p907
aS'ridicoli'
p908
ag63
aS'difetti'
p909
aa(lp910
S'Sono'
p911
aS'sempre'
p912
aS'gli'
p913
aS'stracci'
p914
aa(lp915
S'Sopporta'
p916
ag52
aS'non'
p917
aS'biasimare'
p918
aa(lp919
S'Taccio'
p920
aa(lp921
S'Tanto'
p922
aS'la'
p923
aS'va'
p924
aS'la'
p925
aS'gatta'
p926
aS'al'
p927
aa(lp928
S'Tra'
p929
aS'il'
p930
aS'dire'
p931
ag52
aS'il'
p932
aa(lp933
S'Tra'
p934
aS'moglie'
p935
ag52
aS'marito'
p936
aa(lp937
S'Tra'
p938
aS'prendere'
p939
ag412
aa(lp940
S'Trotto'
p941
aS"d'asino"
p942
aa(lp943
S'Tutti'
p944
ag63
aS'nodi'
p945
aa(lp946
S'Tutto'
p947
aS'\xc3\xa8'
p948
aS'bene'
p949
aa(lp950
S'Una'
p951
aS'ciliegia'
p952
aa(lp953
S'Una'
p954
aS'grande'
p955
aS'paura'
p956
aa(lp957
S'Una'
p958
aS'mano'
p959
aS'lava'
p960
aS"l'altra"
p961
ag52
aa(lp962
S'Una'
p963
aS'mela'
p964
aS'al'
p965
aS'giorno'
p966
aa(lp967
S'Una'
p968
aS'pianta'
p969
aS'che'
p970
aS'ha'
p971
aS'molti'
p972
aa(lp973
S'Una'
p974
aS'rondine'
p975
aa(lp976
S'Un'
p977
aS'bel'
p978
aa(lp979
S'Un'
p980
aS'cavaliere'
p981
aS'tra'
p982
aS'due'
p983
aS'dame'
p984
aa(lp985
S'Un'
p986
aS"po'"
p987
aS'per'
p988
aS'uno'
p989
aa(lp990
S'Va'
p991
aS'con'
p992
aS'chi'
p993
aS'\xc3\xa8'
p994
aS'meglio'
p995
aa(lp996
S'Vale'
p997
aS'pi\xc3\xb9'
p998
aS'la'
p999
aa(lp1000
S'Vecchiaia'
p1001
aS'con'
p1002
aa(lp1003
S'Vedere'
p1004
ag52
aS'non'
p1005
aS'toccare'
p1006
aa(lp1007
S'Vesti'
p1008
aS'un'
p1009
aS'palo'
p1010
aa(lp1011
S'Vive'
p1012
aS'bene'
p1013
aS'chi'
p1014
aS'prende'
p1015
aa(lp1016
S'Zotici'
p1017
ag52
aS'villani'
p1018
aa.