(lp0
(lp1
S'sapr\xc3\xa0'
p2
aS'chi'
p3
aS'ha'
p4
aS'vinto.\n'
p5
aa(lp6
S'non'
p7
aS'manca'
p8
aS'lancia.\n'
p9
aa(lp10
S'non'
p11
aS'si'
p12
aS'trova'
p13
aS'prezzo.\n'
p14
aa(lp15
S'ogni'
p16
aS'scherzo'
p17
aS'vale.\n'
p18
aa(lp19
S'poltroni'
p20
aS'\xc3\xa8'
p21
aS'sempre'
p22
aS'festa.\n'
p23
aa(lp24
S'non'
p25
aS'andar'
p26
aS'per'
p27
aS'serenate.\n'
p28
aa(lp29
S'ognuno'
p30
aS'\xc3\xa8'
p31
aS're.\n'
p32
aa(lp33
S'ogni'
p34
aS'attrezzo'
p35
aS'da'
p36
aS'dolore.\n'
p37
aa(lp38
S'si'
p39
aS'guarda'
p40
aS'in'
p41
aS'bocca.\n'
p42
aa(lp43
S'paura'
p44
aS'non'
p45
aS'basta'
p46
aS"l'armatura.\n"
p47
aa(lp48
S'sermone'
p49
aS'giova'
p50
aS'poco'
p51
aS'il'
p52
aS'bastone.\n'
p53
aa(lp54
S'gli'
p55
aS'ci'
p56
aS'vogliono'
p57
aS'due'
p58
aS'cervelli.\n'
p59
aa(lp60
S'riposare'
p61
aS'conviene'
p62
aS'travagliare.\n'
p63
aa(lp64
S'non'
p65
aS'macina'
p66
aS'pi\xc3\xb9.\n'
p67
aa(lp68
S'per'
p69
aS'un'
p70
aS'piacer'
p71
aS'mille'
p72
aS'dolori.\n'
p73
aa(lp74
S'si'
p75
aS'fa'
p76
aS'il'
p77
aS'mare.\n'
p78
aa(lp79
S'goccia'
p80
aS"s'incava"
p81
aS'la'
p82
aS'pietra.\n'
p83
aa(lp84
S'gli'
p85
aS'altri'
p86
aS'se'
p87
aS'puoi.\n'
p88
aa(lp89
S'rimetti'
p90
aS'il'
p91
aS'ranno'
p92
aS'e'
p93
aS'il'
p94
aS'sapone.\n'
p95
aa(lp96
S'\xc3\xa8'
p97
aS'matto'
p98
aS'chi'
p99
aS'ci'
p100
aS'crede.\n'
p101
aa(lp102
S'non'
p103
aS'si'
p104
aS'comanda.\n'
p105
aa(lp106
S"dall'inverno"
p107
aS'semo'
p108
aS'fora.\n'
p109
aa(lp110
S'si'
p111
aS'fa'
p112
aS'caso.\n'
p113
aa(lp114
S'manca'
p115
aS'mai'
p116
aS'di'
p117
aS'raccontare.\n'
p118
aa(lp119
S'dito'
p120
aS'si'
p121
aS'prende'
p122
aS'tutta'
p123
aS'la'
p124
aS'mano.\n'
p125
aa(lp126
S'estremi'
p127
aS'estremi'
p128
aS'rimedi.\n'
p129
aa(lp130
S'porta'
p131
aS'pena.\n'
p132
aa(lp133
S'fa'
p134
aS'la'
p135
aS'muffa.\n'
p136
aa(lp137
S'la'
p138
aS'sua'
p139
aS'festa.\n'
p140
aa(lp141
S'morire'
p142
aS"c'\xc3\xa8"
p143
aS'sempre'
p144
aS'tempo.\n'
p145
aa(lp146
S"c'\xc3\xa8"
p147
aS'sempre'
p148
aS'tempo.\n'
p149
aa(lp150
S'mosto'
p151
aS'si'
p152
aS'fa'
p153
aS'vino.\n'
p154
aa(lp155
S'non'
p156
aS'prende'
p157
aS'lezioni.\n'
p158
aa(lp159
S'tavolino'
p160
aS'si'
p161
aS'giudica'
p162
aS'il'
p163
aS'contadino.\n'
p164
aa(lp165
S'non'
p166
aS'si'
p167
aS'invecchia.\n'
p168
aa(lp169
S'spesso'
p170
aS'cuor'
p171
aS'non'
p172
aS'tocca.\n'
p173
aa(lp174
S'finch\xc3\xa9'
p175
aS'\xc3\xa8'
p176
aS'caldo.\n'
p177
aa(lp178
S'non'
p179
aS'mente.\n'
p180
aa(lp181
S'che'
p182
aS"l'erba"
p183
aS'cresce.\n'
p184
aa(lp185
S'una'
p186
aS'voglia'
p187
aS'molto'
p188
aS'antica.\n'
p189
aa(lp190
S'abbaia'
p191
aS'non'
p192
aS'morde.\n'
p193
aa(lp194
g93
aS'villano'
p195
aS'dorme.\n'
p196
aa(lp197
S'fa'
p198
aS'buon'
p199
aS'cane.\n'
p200
aa(lp201
S'prende'
p202
aS'un'
p203
aS'cieco'
p204
aS'per'
p205
aS'guida.\n'
p206
aa(lp207
S'bene'
p208
aS'castiga'
p209
aS'bene.\n'
p210
aa(lp211
S'conclude'
p212
aS'poco'
p213
aS'o'
p214
aS'niente.\n'
p215
aa(lp216
S'\xc3\xa8'
p217
aS'alla'
p218
aS'met\xc3\xa0'
p219
aS"dell'opera.\n"
p220
aa(lp221
S'della'
p222
aS'sua'
p223
aS'belt\xc3\xa0'
p224
aS'troppo'
p225
aS'si'
p226
aS'fida.\n'
p227
aa(lp228
S'non'
p229
aS'fa'
p230
aS'errori.\n'
p231
aa(lp232
S'non'
p233
aS'piglia'
p234
aS'pesci.\n'
p235
aa(lp236
S'per'
p237
aS'gli'
p238
aS'altri'
p239
aS'un'
p240
aS'trastullo.\n'
p241
aa(lp242
S'non'
p243
aS'aspetti'
p244
aS'tempo.\n'
p245
aa(lp246
S'fa'
p247
aS"l'aspetti.\n"
p248
aa(lp249
S'fa'
p250
aS'clamore'
p251
aS'contro'
p252
aS"l'accusatore.\n"
p253
aa(lp254
S'mostra'
p255
aS'vende.\n'
p256
aa(lp257
S'gatta'
p258
aS'piglia'
p259
aS'i'
p260
aS'topi.\n'
p261
aa(lp262
S'afflitto'
p263
aS'muore'
p264
aS'sconsolato.\n'
p265
aa(lp266
S'non'
p267
aS'pu\xc3\xb2'
p268
aS'morir'
p269
aS'quadrato.\n'
p270
aa(lp271
S'scrittura'
p272
aS'\xc3\xa8'
p273
aS'un'
p274
aS'asino'
p275
aS'di'
p276
aS'natura.\n'
p277
aa(lp278
S'muore'
p279
aS'si'
p280
aS'rivede.\n'
p281
aa(lp282
S'risica'
p283
aS'non'
p284
aS'rosica.\n'
p285
aa(lp286
S'scaccia'
p287
aS'chiodo.\n'
p288
aa(lp289
g260
aS'cocci'
p290
aS'sono'
p291
ag260
aS'suoi.\n'
p292
aa(lp293
S'chi'
p294
aS'non'
p295
aS'sa'
p296
aS'insegna.\n'
p297
aa(lp298
S'sabbia'
p299
aS'raccoglie'
p300
aS'solo'
p301
aS'rabbia.\n'
p302
aa(lp303
S'vento'
p304
aS'raccoglie'
p305
aS'tempesta.\n'
p306
aa(lp307
S'contenta'
p308
aS'gode.\n'
p309
aa(lp310
S'calda'
p311
aS'ha'
p312
aS'paura'
p313
aS'anche'
p314
aS"dell'acqua"
p315
aS'fredda.\n'
p316
aa(lp317
S'loda'
p318
aS'si'
p319
aS'sbroda.\n'
p320
aa(lp321
S'tace'
p322
aS'acconsente.\n'
p323
aa(lp324
S'tira'
p325
aS'la'
p326
aS'spezza.\n'
p327
aa(lp328
S'vuole'
p329
aS'arrabbiato'
p330
aS'muore.\n'
p331
aa(lp332
S'al'
p333
aS'mulino'
p334
aS"s'infarina.\n"
p335
aa(lp336
S'zoppo'
p337
aS'impara'
p338
aS'a'
p339
aS'zoppicare.\n'
p340
aa(lp341
S'sano'
p342
ag93
aS'va'
p343
aS'lontano.\n'
p344
aa(lp345
S'sogni'
p346
aS'ha'
p347
aS'meno'
p348
aS'bisogni.\n'
p349
aa(lp350
S'ma'
p351
aS'la'
p352
aS'storia'
p353
aS'non'
p354
aS'si'
p355
aS'fa.\n'
p356
aa(lp357
S'si'
p358
aS'cura'
p359
aS'il'
p360
aS'mal'
p361
aS'di'
p362
aS'denti.\n'
p363
aa(lp364
S'lato'
p365
aS"l'uomo"
p366
aS'\xc3\xa8'
p367
aS'sempre'
p368
aS'beato.\n'
p369
aa(lp370
S'maniere'
p371
aS'si'
p372
aS'ottiene'
p373
aS'tutto.\n'
p374
aa(lp375
S'\xc3\xa8'
p376
aS'facile'
p377
aS'toccare'
p378
aS'il'
p379
aS'fuoco.\n'
p380
aa(lp381
S'pratica'
p382
aS'che'
p383
aS'la'
p384
aS'grammatica.\n'
p385
aa(lp386
S'coraggio'
p387
aS'si'
p388
aS'finisce'
p389
aS'ogni'
p390
aS'viaggio.\n'
p391
aa(lp392
S'il'
p393
aS'ciel'
p394
aS"l'aiuta.\n"
p395
aa(lp396
S'nasce'
p397
aS'cosa.\n'
p398
aa(lp399
S'si'
p400
aS'conosce'
p401
aS"l'albero.\n"
p402
aa(lp403
S'si'
p404
aS'esce'
p405
aS'sempre'
p406
aS'pi\xc3\xb9'
p407
aS'sincero.\n'
p408
aa(lp409
S'\xc3\xa8'
p410
aS'lastricato'
p411
aS"l'inferno.\n"
p412
aa(lp413
g93
aS'ti'
p414
aS'dir\xc3\xb2'
p415
aS'chi'
p416
aS'sei.\n'
p417
aa(lp418
S'con'
p419
aS'chi'
p420
aS'ama'
p421
aS'tacere.\n'
p422
aa(lp423
S'fanno'
p424
aS'la'
p425
aS'stessa'
p426
aS'via.\n'
p427
aa(lp428
S'fatti'
p429
aS'ingannano'
p430
aS'savi'
p431
ag93
aS'matti.\n'
p432
aa(lp433
S'gelosi'
p434
aS'son'
p435
aS'troppo'
p436
aS'pericolosi.\n'
p437
aa(lp438
S'\xc3\xa8'
p439
aS'inutile'
p440
aS'tener'
p441
aS'porte'
p442
aS'serrate.\n'
p443
aa(lp444
S'non'
p445
aS'manca'
p446
aS'provvidenza.\n'
p447
aa(lp448
S'chi'
p449
aS'gli'
p450
aS'tiene'
p451
aS'il'
p452
aS'sacco.\n'
p453
aa(lp454
S'accordo'
p455
aS'di'
p456
aS'una'
p457
aS'grassa'
p458
aS'sentenza.\n'
p459
aa(lp460
S"l'apprensione"
p461
aS'che'
p462
aS'il'
p463
aS'malanno.\n'
p464
aa(lp465
g339
aS'fare.\n'
p466
aa(lp467
S'non'
p468
aS'fidarsi'
p469
aS'\xc3\xa8'
p470
aS'meglio.\n'
p471
aa(lp472
S'litiganti'
p473
aS'il'
p474
aS'terzo'
p475
aS'gode.\n'
p476
aa(lp477
S'ha'
p478
aS'fatto'
p479
aS"l'uovo.\n"
p480
aa(lp481
S'becca'
p482
aS'ha'
p483
aS'gi\xc3\xa0'
p484
aS'beccato.\n'
p485
aa(lp486
S'fa'
p487
aS'buon'
p488
aS'brodo.\n'
p489
aa(lp490
S'li'
p491
aS'ricopre'
p492
aS'la'
p493
aS'terra.\n'
p494
aa(lp495
S'li'
p496
aS'sa'
p497
aS'il'
p498
aS'coperchio.\n'
p499
aa(lp500
S'si'
p501
aS'vede'
p502
aS'dal'
p503
aS'mattino.\n'
p504
aa(lp505
S'morde'
p506
aS'lo'
p507
aS'straccione.\n'
p508
aa(lp509
S'scotta'
p510
ag214
aS'tinge.\n'
p511
aa(lp512
S'grosse'
p513
ag93
aS'cervello'
p514
aS'fino.\n'
p515
aa(lp516
S'coi'
p517
aS'denti'
p518
aS'degli'
p519
aS'altri.\n'
p520
aa(lp521
S'pentole'
p522
aS'ma'
p523
aS'non'
p524
ag260
aS'coperchi.\n'
p525
aa(lp526
S'sta'
p527
aS'nel'
p528
aS'cominciare.\n'
p529
aa(lp530
S'sar\xc3\xa0'
p531
aS'un'
p532
aS'vecchio'
p533
aS'bisognoso.\n'
p534
aa(lp535
S"l'oro"
p536
aS'in'
p537
aS'bocca.\n'
p538
aa(lp539
S'\xc3\xa8'
p540
aS'un'
p541
aS'amico'
p542
aS'vecchio.\n'
p543
aa(lp544
S'pelo'
p545
aS'ma'
p546
aS'non'
p547
aS'il'
p548
aS'vizio.\n'
p549
aa(lp550
S'quello'
p551
aS'che'
p552
aS'non'
p553
aS'vuole'
p554
aS'sentire.\n'
p555
aa(lp556
S'conosce'
p557
aS'il'
p558
aS'meno.\n'
p559
aa(lp560
S'sulla'
p561
aS'bocca'
p562
aS'degli'
p563
aS'stolti.\n'
p564
aa(lp565
S'non'
p566
aS'crede'
p567
aS"all'affamato.\n"
p568
aa(lp569
S'\xc3\xa8'
p570
aS"d'oro.\n"
p571
aa(lp572
S'ragione'
p573
aS'genera'
p574
aS'mostri.\n'
p575
aa(lp576
S'mai'
p577
aS'da'
p578
aS'una'
p579
aS'parte'
p580
aS'sola.\n'
p581
aa(lp582
S'troppo'
p583
aS'stroppia.\n'
p584
aa(lp585
S'si'
p586
aS'vende'
p587
aS'senza'
p588
aS'frasca.\n'
p589
aa(lp590
g93
aS'fa'
p591
aS'svelar'
p592
ag260
aS'segreti.\n'
p593
aa(lp594
S'mettila'
p595
aS'da'
p596
aS'parte.\n'
p597
aa(lp598
S'guerra'
p599
aS'tutto'
p600
aS'\xc3\xa8'
p601
aS'lecito.\n'
p602
aa(lp603
S'non'
p604
aS'entrano'
p605
aS'le'
p606
aS'mosche.\n'
p607
aa(lp608
S'non'
p609
aS'parlar'
p610
aS'di'
p611
aS'acqua'
p612
aS'santa.\n'
p613
aa(lp614
S'prima'
p615
aS'la'
p616
aS'femmina'
p617
ag93
aS'poi'
p618
aS"l'uomo.\n"
p619
aa(lp620
S'Dio'
p621
aS'lavora.\n'
p622
aa(lp623
S'si'
p624
aS'lavano'
p625
aS'in'
p626
aS'famiglia.\n'
p627
aa(lp628
S'per'
p629
aS'suonar'
p630
ag93
aS'furono'
p631
aS'suonati.\n'
p632
aa(lp633
S'fa'
p634
aS'il'
p635
aS'monaco.\n'
p636
aa(lp637
S'le'
p638
aS'gambe'
p639
aS'corte.\n'
p640
aa(lp641
S'moltiplicazione'
p642
aS'infinita'
p643
aS'di'
p644
aS'necessit\xc3\xa0'
p645
aS'non'
p646
aS'necessarie.\n'
p647
aa(lp648
S'il'
p649
aS'mare'
p650
aS'vuol'
p651
aS'pazienza.\n'
p652
aa(lp653
S'matto'
p654
aS'chi'
p655
aS'ci'
p656
aS'crede.\n'
p657
aa(lp658
S'sa'
p659
aS'pi\xc3\xb9'
p660
aS'del'
p661
aS'diavolo.\n'
p662
aa(lp663
S'il'
p664
aS'miglior'
p665
aS'condimento.\n'
p666
aa(lp667
S'il'
p668
aS'lupo'
p669
aS'dal'
p670
aS'bosco.\n'
p671
aa(lp672
S'va'
p673
aS'tutta'
p674
aS'in'
p675
aS'crusca.\n'
p676
aa(lp677
S'\xc3\xa8'
p678
aS'cattiva'
p679
aS'consigliera.\n'
p680
aa(lp681
S'fece'
p682
ag260
aS'mici'
p683
aS'ciechi\n'
p684
aa(lp685
S'scava'
p686
aS'la'
p687
aS'pietra.\n'
p688
aa(lp689
S'riconosce'
p690
aS'dai'
p691
aS'frutti.\n'
p692
aa(lp693
S'dove'
p694
aS'duole'
p695
aS'il'
p696
aS'dente.\n'
p697
aa(lp698
S'lo'
p699
aS'conosci'
p700
aS"nell'incerto.\n"
p701
aa(lp702
S'\xc3\xa8'
p703
aS'il'
p704
aS'perdono.\n'
p705
aa(lp706
S'non'
p707
aS'si'
p708
aS'possono'
p709
aS'nascondere.\n'
p710
aa(lp711
S'aguzza'
p712
aS"l'ingegno.\n"
p713
aa(lp714
S'porta'
p715
aS'consiglio.\n'
p716
aa(lp717
S'piedi'
p718
aS'partir\xc3\xa0'
p719
aS'in'
p720
aS'carrozza'
p721
aS'torner\xc3\xa0.\n'
p722
aa(lp723
S'inganna.\n'
p724
aa(lp725
S'vien'
p726
aS'mangiando.\n'
p727
aa(lp728
S'\xc3\xa8'
p729
aS'mai'
p730
aS'troppa.\n'
p731
aa(lp732
S'passato'
p733
aS'non'
p734
aS'nutre'
p735
aS"l'affamato.\n"
p736
aa(lp737
S"l'ultima"
p738
ag339
aS'morire.\n'
p739
aa(lp740
S'maestra'
p741
aS'di'
p742
aS'vita.\n'
p743
aa(lp744
S'cavallo'
p745
ag93
aS'torn\xc3\xb2'
p746
ag339
aS'piedi.\n'
p747
aa(lp748
S'fino'
p749
ag339
aS'100'
p750
aS'anni.\n'
p751
aa(lp752
S'al'
p753
aS'lardo'
p754
aS'dice'
p755
aS'che'
p756
aS'\xc3\xa8'
p757
aS'rancido.\n'
p758
aa(lp759
S'non'
p760
aS'fanno'
p761
aS'farina.\n'
p762
aa(lp763
S'lunghe'
p764
aS'diventano'
p765
aS'serpenti.\n'
p766
aa(lp767
S'quanto'
p768
ag260
aS'cerchi'
p769
aS"sull'acqua.\n"
p770
aa(lp771
S'non'
p772
aS'muore'
p773
aS'mai.\n'
p774
aa(lp775
S'\xc3\xa8'
p776
aS'sempre'
p777
aS'pi\xc3\xb9'
p778
aS'verde.\n'
p779
aa(lp780
S'nulla'
p781
aS'da'
p782
aS'insegnare'
p783
aS'alla'
p784
aS'gallina.\n'
p785
aa(lp786
S"l'uomo"
p787
aS'ladro.\n'
p788
aa(lp789
S'ingrassa'
p790
aS'il'
p791
aS'cavallo.\n'
p792
aa(lp793
S'lo'
p794
aS'specchio'
p795
aS"dell'anima.\n"
p796
aa(lp797
S'lontano'
p798
aS'dal'
p799
aS'cuore.\n'
p800
aa(lp801
S'pesce:'
p802
aS'dopo'
p803
aS'tre'
p804
aS'giorni'
p805
aS'puzza.\n'
p806
aa(lp807
S'padre'
p808
aS'dei'
p809
aS'vizi.\n'
p810
aa(lp811
S'tutto'
p812
aS'quello'
p813
aS'che'
p814
aS'desidera.\n'
p815
aa(lp816
S'chi'
p817
aS'venne.\n'
p818
aa(lp819
S'che'
p820
aS'mai.\n'
p821
aa(lp822
S'che'
p823
aS'un'
p824
aS'dottore'
p825
aS'morto.\n'
p826
aa(lp827
S'che'
p828
aS'male'
p829
aS'accompagnati.\n'
p830
aa(lp831
S'vive'
p832
aS'sol'
p833
aS'per'
p834
aS's\xc3\xa9.\n'
p835
aa(lp836
S'gola'
p837
aS'che'
p838
aS'la'
p839
aS'spada.\n'
p840
aa(lp841
S'si'
p842
aS'conosce'
p843
aS"l'amico.\n"
p844
aa(lp845
S'grida'
p846
aS'puoi'
p847
aS'passare'
p848
aS'sicuro.\n'
p849
aa(lp850
S"c'\xc3\xa8"
p851
aS'il'
p852
aS'vino'
p853
aS'buono.\n'
p854
aa(lp855
S'anche'
p856
aS'un'
p857
aS'guercio'
p858
aS'\xc3\xa8'
p859
aS're.\n'
p860
aa(lp861
S'canta'
p862
aS'la'
p863
aS'gallina'
p864
ag93
aS'il'
p865
aS'gallo'
p866
aS'tace.\n'
p867
aa(lp868
S'nero'
p869
aS'non'
p870
aS'tinge.\n'
p871
aa(lp872
S'gola'
p873
aS'che'
p874
aS'la'
p875
aS'spada.\n'
p876
aa(lp877
S'cane'
p878
ag214
aS'gatto'
p879
aS'non'
p880
aS'porti'
p881
aS'via.\n'
p882
aa(lp883
S'due'
p884
aS'senza'
p885
aS'tre.\n'
p886
aa(lp887
S'di'
p888
aS'chi'
p889
aS'non'
p890
aS'vuol'
p891
aS'sentire.\n'
p892
aa(lp893
S'non'
p894
aS"l'hai"
p895
aS'nel'
p896
aS'sacco.\n'
p897
aa(lp898
S'risparmia'
p899
aS'il'
p900
aS'suo'
p901
ag93
aS'mangia'
p902
aS'il'
p903
aS'mio.\n'
p904
aa(lp905
S'bello'
p906
aS'ma'
p907
aS'\xc3\xa8'
p908
aS'bello'
p909
aS'ci\xc3\xb2'
p910
aS'che'
p911
aS'piace.\n'
p912
aa(lp913
S'ma'
p914
aS'chi'
p915
aS'meno'
p916
aS'ha'
p917
aS'bisogno.\n'
p918
aa(lp919
S'quello'
p920
aS'che'
p921
aS'riluce.\n'
p922
aa(lp923
S'corda'
p924
aS'in'
p925
aS'casa'
p926
aS"dell'impiccato.\n"
p927
aa(lp928
S'piena'
p929
ag93
aS'moglie'
p930
aS'ubriaca.\n'
p931
aa(lp932
S'se'
p933
aS'sei'
p934
aS'tra'
p935
aS'gli'
p936
aS'alberi.\n'
p937
aa(lp938
g339
aS'chi'
p939
aS'non'
p940
aS'ha'
p941
aS'esperienza.\n'
p942
aa(lp943
S'can'
p944
aS'che'
p945
aS'dorme.\n'
p946
aa(lp947
S'mali'
p948
aS'vengono'
p949
aS'per'
p950
aS'nuocere.\n'
p951
aa(lp952
S'il'
p953
aS'vino'
p954
aS'che'
p955
aS'ha.\n'
p956
aa(lp957
S'il'
p958
aS'suo'
p959
aS'tarlo.\n'
p960
aa(lp961
S'\xc3\xa8'
p962
aS'persa.\n'
p963
aa(lp964
S'il'
p965
aS'suo'
p966
aS'rovescio.\n'
p967
aa(lp968
S'\xc3\xa8'
p969
aS'debito.\n'
p970
aa(lp971
S'della'
p972
aS'sua'
p973
aS'fortuna.\n'
p974
aa(lp975
S'usanza'
p976
aS'che'
p977
aS'trovi.\n'
p978
aa(lp979
S'donna'
p980
aS'onesta'
p981
aS'perde'
p982
aS'la'
p983
aS'testa.\n'
p984
aa(lp985
S'bisogna'
p986
aS'prima'
p987
aS'imparare.\n'
p988
aa(lp989
S'non'
p990
aS'si'
p991
aS'butter\xc3\xa0'
p992
aS'ma'
p993
aS'una'
p994
aS'rete'
p995
aS'comprer\xc3\xa0.\n'
p996
aa(lp997
S'non'
p998
aS'marciano'
p999
aS'insieme.\n'
p1000
aa(lp1001
S"c'\xc3\xa8"
p1002
aS'pi\xc3\xb9'
p1003
aS'sinistra'
p1004
ag214
aS'destra.\n'
p1005
aa(lp1006
S'il'
p1007
aS'grande'
p1008
aS'ha'
p1009
aS'sparlato.\n'
p1010
aa(lp1011
S'candelora'
p1012
aS"dall'inverno"
p1013
aS'semo'
p1014
aS'fora.\n'
p1015
aa(lp1016
S'sale'
p1017
aS'al'
p1018
aS'cielo.\n'
p1019
aa(lp1020
S'chi'
p1021
aS'ride'
p1022
aS'ultimo.\n'
p1023
aa(lp1024
S'per'
p1025
aS'il'
p1026
aS'padrone.\n'
p1027
aa(lp1028
S'bel'
p1029
aS'tempo'
p1030
aS'si'
p1031
aS'spera.\n'
p1032
aa(lp1033
S'sta'
p1034
aS'in'
p1035
aS'piedi.\n'
p1036
aa(lp1037
S"s'impara.\n"
p1038
aa(lp1039
S'lascia'
p1040
aS'stare'
p1041
ag260
aS'Santi.\n'
p1042
aa(lp1043
S'siedi'
p1044
aS'altrimenti'
p1045
aS'stai'
p1046
aS'in'
p1047
aS'piedi.\n'
p1048
aa(lp1049
S'zuppa'
p1050
aS'\xc3\xa8'
p1051
aS'pan'
p1052
aS'bagnato.\n'
p1053
aa(lp1054
S'Dio'
p1055
aS'far\xc3\xa0'
p1056
aS'il'
p1057
aS'resto.\n'
p1058
aa(lp1059
S'garzone'
p1060
ag93
aS'poi'
p1061
aS'maestro.\n'
p1062
aa(lp1063
S'che'
p1064
aS'le'
p1065
aS'qualit\xc3\xa0'
p1066
aS'che'
p1067
aS'non'
p1068
aS'abbiamo.\n'
p1069
aa(lp1070
S'che'
p1071
aS'vanno'
p1072
aS'per'
p1073
aS'aria.\n'
p1074
aa(lp1075
S'quello'
p1076
aS'che'
p1077
aS'non'
p1078
aS'puoi'
p1079
aS'cambiare.\n'
p1080
aa(lp1081
g214
aS'setaccio.\n'
p1082
aa(lp1083
S'lardo'
p1084
aS'che'
p1085
aS'ci'
p1086
aS'lascia'
p1087
aS'lo'
p1088
aS'zampino.\n'
p1089
aa(lp1090
S'fare'
p1091
aS"c'\xc3\xa8"
p1092
aS'di'
p1093
aS'mezzo'
p1094
aS'il'
p1095
aS'mare.\n'
p1096
aa(lp1097
S'non'
p1098
aS'mettere'
p1099
aS'il'
p1100
aS'dito.\n'
p1101
aa(lp1102
S'lasciare'
p1103
aS'occorre'
p1104
aS'ben'
p1105
aS'pensare.\n'
p1106
aa(lp1107
S'dura'
p1108
aS'poco.\n'
p1109
aa(lp1110
S'vengono'
p1111
aS'al'
p1112
aS'pettine.\n'
p1113
aa(lp1114
S'quel'
p1115
aS'che'
p1116
aS'finisce'
p1117
aS'bene.\n'
p1118
aa(lp1119
S'tira'
p1120
aS"l'altra.\n"
p1121
aa(lp1122
S'nessun'
p1123
aS'medico'
p1124
aS'la'
p1125
aS'cura.\n'
p1126
aa(lp1127
S'tutte'
p1128
ag93
aS'due'
p1129
aS'lavano'
p1130
aS'il'
p1131
aS'viso.\n'
p1132
aa(lp1133
S'leva'
p1134
aS'il'
p1135
aS'medico'
p1136
aS'di'
p1137
aS'torno.\n'
p1138
aa(lp1139
S'frutti'
p1140
aS'non'
p1141
aS'li'
p1142
aS'matura'
p1143
aS'tutti.\n'
p1144
aa(lp1145
S'non'
p1146
aS'fa'
p1147
aS'primavera.\n'
p1148
aa(lp1149
S'gioco'
p1150
aS'dura'
p1151
aS'poco.\n'
p1152
aa(lp1153
S'fa'
p1154
aS'la'
p1155
aS'figura'
p1156
aS'del'
p1157
aS'salame.\n'
p1158
aa(lp1159
S'non'
p1160
aS'fa'
p1161
aS'male'
p1162
ag339
aS'nessuno.\n'
p1163
aa(lp1164
S'di'
p1165
aS'te'
p1166
ag93
aS'pagagli'
p1167
aS'le'
p1168
aS'spese.\n'
p1169
aa(lp1170
S'pratica'
p1171
aS'che'
p1172
aS'la'
p1173
aS'grammatica.\n'
p1174
aa(lp1175
S'pazienza'
p1176
aS'prolunga'
p1177
aS"l'esistenza.\n"
p1178
aa(lp1179
S'\xc3\xa8'
p1180
aS'una'
p1181
aS'cosa'
p1182
aS'da'
p1183
aS'crepare.\n'
p1184
aa(lp1185
S'che'
p1186
aS'bel'
p1187
aS"t'appare.\n"
p1188
aa(lp1189
S'il'
p1190
aS'mondo'
p1191
aS'come'
p1192
aS'viene.\n'
p1193
aa(lp1194
S'discuton'
p1195
aS'con'
p1196
aS'le'
p1197
aS'mani.\n'
p1198
aa.